#include <math.h>
#include <stdio.h>
#include <stdlib.h>
#include <string.h>

void main()
{
	int n,i,j,a[300]={0},t;
	char comma[300];
	for(i=0,j=1;comma[j-1]!='\n';i++,j++)
	{
		scanf("%d", &a[i]);
		scanf("%c", &comma[j]);
	}
	if(i-1==0)
	{
		printf("No");
		goto stop;
	}

	n=i;
	
	for(j=1;j<n;j++)
			for(i=0;i<n-j;i++)
					if(a[i]>a[i+1])
			{
				t=a[i];
				a[i]=a[i+1];
				a[i+1]=t;
			}
					
			for(i=n-2;i>=0;i--)
			{
				if(a[i]!=a[n-1])
				{
					printf("%d",a[i]);
				break;
				}
			}
		
		
				if(a[0]==a[n-1])
					printf("No");
stop:;

}