; ModuleID = '22/424.c'
source_filename = "22/424.c"
target datalayout = "e-m:e-p270:32:32-p271:32:32-p272:64:64-i64:64-f80:128-n8:16:32:64-S128"
target triple = "x86_64-pc-linux-gnu"

@.str = private unnamed_addr constant [3 x i8] c"%d\00", align 1
@.str.1 = private unnamed_addr constant [3 x i8] c"%c\00", align 1
@.str.2 = private unnamed_addr constant [3 x i8] c"No\00", align 1

; Function Attrs: noinline nounwind uwtable
define dso_local void @main() #0 {
  %1 = alloca i32, align 4
  %2 = alloca i32, align 4
  %3 = alloca i32, align 4
  %4 = alloca [300 x i32], align 16
  %5 = alloca i32, align 4
  %6 = alloca [300 x i8], align 16
  %7 = bitcast [300 x i32]* %4 to i8*
  call void @llvm.memset.p0i8.i64(i8* align 16 %7, i8 0, i64 1200, i1 false)
  store i32 0, i32* %2, align 4
  store i32 1, i32* %3, align 4
  br label %8

8:                                                ; preds = %25, %0
  %9 = load i32, i32* %3, align 4
  %10 = sub nsw i32 %9, 1
  %11 = sext i32 %10 to i64
  %12 = getelementptr inbounds [300 x i8], [300 x i8]* %6, i64 0, i64 %11
  %13 = load i8, i8* %12, align 1
  %14 = sext i8 %13 to i32
  %15 = icmp ne i32 %14, 10
  br i1 %15, label %16, label %30

16:                                               ; preds = %8
  %17 = load i32, i32* %2, align 4
  %18 = sext i32 %17 to i64
  %19 = getelementptr inbounds [300 x i32], [300 x i32]* %4, i64 0, i64 %18
  %20 = call i32 (i8*, ...) @__isoc99_scanf(i8* getelementptr inbounds ([3 x i8], [3 x i8]* @.str, i64 0, i64 0), i32* %19)
  %21 = load i32, i32* %3, align 4
  %22 = sext i32 %21 to i64
  %23 = getelementptr inbounds [300 x i8], [300 x i8]* %6, i64 0, i64 %22
  %24 = call i32 (i8*, ...) @__isoc99_scanf(i8* getelementptr inbounds ([3 x i8], [3 x i8]* @.str.1, i64 0, i64 0), i8* %23)
  br label %25

25:                                               ; preds = %16
  %26 = load i32, i32* %2, align 4
  %27 = add nsw i32 %26, 1
  store i32 %27, i32* %2, align 4
  %28 = load i32, i32* %3, align 4
  %29 = add nsw i32 %28, 1
  store i32 %29, i32* %3, align 4
  br label %8

30:                                               ; preds = %8
  %31 = load i32, i32* %2, align 4
  %32 = sub nsw i32 %31, 1
  %33 = icmp eq i32 %32, 0
  br i1 %33, label %34, label %36

34:                                               ; preds = %30
  %35 = call i32 (i8*, ...) @printf(i8* getelementptr inbounds ([3 x i8], [3 x i8]* @.str.2, i64 0, i64 0))
  br label %125

36:                                               ; preds = %30
  %37 = load i32, i32* %2, align 4
  store i32 %37, i32* %1, align 4
  store i32 1, i32* %3, align 4
  br label %38

38:                                               ; preds = %83, %36
  %39 = load i32, i32* %3, align 4
  %40 = load i32, i32* %1, align 4
  %41 = icmp slt i32 %39, %40
  br i1 %41, label %42, label %86

42:                                               ; preds = %38
  store i32 0, i32* %2, align 4
  br label %43

43:                                               ; preds = %79, %42
  %44 = load i32, i32* %2, align 4
  %45 = load i32, i32* %1, align 4
  %46 = load i32, i32* %3, align 4
  %47 = sub nsw i32 %45, %46
  %48 = icmp slt i32 %44, %47
  br i1 %48, label %49, label %82

49:                                               ; preds = %43
  %50 = load i32, i32* %2, align 4
  %51 = sext i32 %50 to i64
  %52 = getelementptr inbounds [300 x i32], [300 x i32]* %4, i64 0, i64 %51
  %53 = load i32, i32* %52, align 4
  %54 = load i32, i32* %2, align 4
  %55 = add nsw i32 %54, 1
  %56 = sext i32 %55 to i64
  %57 = getelementptr inbounds [300 x i32], [300 x i32]* %4, i64 0, i64 %56
  %58 = load i32, i32* %57, align 4
  %59 = icmp sgt i32 %53, %58
  br i1 %59, label %60, label %78

60:                                               ; preds = %49
  %61 = load i32, i32* %2, align 4
  %62 = sext i32 %61 to i64
  %63 = getelementptr inbounds [300 x i32], [300 x i32]* %4, i64 0, i64 %62
  %64 = load i32, i32* %63, align 4
  store i32 %64, i32* %5, align 4
  %65 = load i32, i32* %2, align 4
  %66 = add nsw i32 %65, 1
  %67 = sext i32 %66 to i64
  %68 = getelementptr inbounds [300 x i32], [300 x i32]* %4, i64 0, i64 %67
  %69 = load i32, i32* %68, align 4
  %70 = load i32, i32* %2, align 4
  %71 = sext i32 %70 to i64
  %72 = getelementptr inbounds [300 x i32], [300 x i32]* %4, i64 0, i64 %71
  store i32 %69, i32* %72, align 4
  %73 = load i32, i32* %5, align 4
  %74 = load i32, i32* %2, align 4
  %75 = add nsw i32 %74, 1
  %76 = sext i32 %75 to i64
  %77 = getelementptr inbounds [300 x i32], [300 x i32]* %4, i64 0, i64 %76
  store i32 %73, i32* %77, align 4
  br label %78

78:                                               ; preds = %60, %49
  br label %79

79:                                               ; preds = %78
  %80 = load i32, i32* %2, align 4
  %81 = add nsw i32 %80, 1
  store i32 %81, i32* %2, align 4
  br label %43

82:                                               ; preds = %43
  br label %83

83:                                               ; preds = %82
  %84 = load i32, i32* %3, align 4
  %85 = add nsw i32 %84, 1
  store i32 %85, i32* %3, align 4
  br label %38

86:                                               ; preds = %38
  %87 = load i32, i32* %1, align 4
  %88 = sub nsw i32 %87, 2
  store i32 %88, i32* %2, align 4
  br label %89

89:                                               ; preds = %110, %86
  %90 = load i32, i32* %2, align 4
  %91 = icmp sge i32 %90, 0
  br i1 %91, label %92, label %113

92:                                               ; preds = %89
  %93 = load i32, i32* %2, align 4
  %94 = sext i32 %93 to i64
  %95 = getelementptr inbounds [300 x i32], [300 x i32]* %4, i64 0, i64 %94
  %96 = load i32, i32* %95, align 4
  %97 = load i32, i32* %1, align 4
  %98 = sub nsw i32 %97, 1
  %99 = sext i32 %98 to i64
  %100 = getelementptr inbounds [300 x i32], [300 x i32]* %4, i64 0, i64 %99
  %101 = load i32, i32* %100, align 4
  %102 = icmp ne i32 %96, %101
  br i1 %102, label %103, label %109

103:                                              ; preds = %92
  %104 = load i32, i32* %2, align 4
  %105 = sext i32 %104 to i64
  %106 = getelementptr inbounds [300 x i32], [300 x i32]* %4, i64 0, i64 %105
  %107 = load i32, i32* %106, align 4
  %108 = call i32 (i8*, ...) @printf(i8* getelementptr inbounds ([3 x i8], [3 x i8]* @.str, i64 0, i64 0), i32 %107)
  br label %113

109:                                              ; preds = %92
  br label %110

110:                                              ; preds = %109
  %111 = load i32, i32* %2, align 4
  %112 = add nsw i32 %111, -1
  store i32 %112, i32* %2, align 4
  br label %89

113:                                              ; preds = %103, %89
  %114 = getelementptr inbounds [300 x i32], [300 x i32]* %4, i64 0, i64 0
  %115 = load i32, i32* %114, align 16
  %116 = load i32, i32* %1, align 4
  %117 = sub nsw i32 %116, 1
  %118 = sext i32 %117 to i64
  %119 = getelementptr inbounds [300 x i32], [300 x i32]* %4, i64 0, i64 %118
  %120 = load i32, i32* %119, align 4
  %121 = icmp eq i32 %115, %120
  br i1 %121, label %122, label %124

122:                                              ; preds = %113
  %123 = call i32 (i8*, ...) @printf(i8* getelementptr inbounds ([3 x i8], [3 x i8]* @.str.2, i64 0, i64 0))
  br label %124

124:                                              ; preds = %122, %113
  br label %125

125:                                              ; preds = %124, %34
  ret void
}

; Function Attrs: argmemonly nounwind willreturn
declare void @llvm.memset.p0i8.i64(i8* nocapture writeonly, i8, i64, i1 immarg) #1

declare dso_local i32 @__isoc99_scanf(i8*, ...) #2

declare dso_local i32 @printf(i8*, ...) #2


!llvm.module.flags = !{!0}
!llvm.ident = !{!1}

!0 = !{i32 1, !"wchar_size", i32 4}
!1 = !{!"clang version 10.0.0-4ubuntu1 "}
